target datalayout = "e-m:e-p270:32:32-p271:32:32-p272:64:64-i64:64-i128:128-f80:128-n8:16:32:64-S128"
target triple = "x86_64-unknown-linux-gnu"

%"class.std::set.0" = type { %"class.std::_Rb_tree.1" }
%"class.std::_Rb_tree.1" = type { %"struct.std::_Rb_tree<QuantLib::Observer *, QuantLib::Observer *, std::_Identity<QuantLib::Observer *>, std::less<QuantLib::Observer *>>::_Rb_tree_impl" }
%"struct.std::_Rb_tree<QuantLib::Observer *, QuantLib::Observer *, std::_Identity<QuantLib::Observer *>, std::less<QuantLib::Observer *>>::_Rb_tree_impl" = type { [8 x i8], %"struct.std::_Rb_tree_header" }
%"struct.std::_Rb_tree_header" = type { %"struct.std::_Rb_tree_node_base", i64 }
%"struct.std::_Rb_tree_node_base" = type { i32, ptr, ptr, ptr }
%"class.std::set" = type { %"class.std::_Rb_tree" }
%"class.std::_Rb_tree" = type { %"struct.std::_Rb_tree<boost::shared_ptr<QuantLib::Observable>, boost::shared_ptr<QuantLib::Observable>, std::_Identity<boost::shared_ptr<QuantLib::Observable>>, std::less<boost::shared_ptr<QuantLib::Observable>>>::_Rb_tree_impl" }
%"struct.std::_Rb_tree<boost::shared_ptr<QuantLib::Observable>, boost::shared_ptr<QuantLib::Observable>, std::_Identity<boost::shared_ptr<QuantLib::Observable>>, std::less<boost::shared_ptr<QuantLib::Observable>>>::_Rb_tree_impl" = type { [8 x i8], %"struct.std::_Rb_tree_header" }
%"class.boost::detail::shared_count" = type { ptr }
%"class.QuantLib::Observable" = type { ptr, %"class.std::set.0" }
%"class.QuantLib::Handle" = type { %"class.boost::shared_ptr.20" }
%"class.boost::shared_ptr.20" = type { ptr, %"class.boost::detail::shared_count" }
%"class.QuantLib::Date" = type { i64 }
%"class.QuantLib::BootstrapHelper" = type { %"class.QuantLib::Observer", %"class.QuantLib::Observable", %"class.QuantLib::Handle", ptr, %"class.QuantLib::Date", %"class.QuantLib::Date", %"class.QuantLib::Date", %"class.QuantLib::Date", %"class.QuantLib::Date" }
%"class.QuantLib::Observer" = type { ptr, %"class.std::set" }
%"class.boost::shared_ptr.21" = type { ptr, %"class.boost::detail::shared_count" }
%"class.QuantLib::RelinkableHandle" = type { %"class.QuantLib::Handle.22" }
%"class.QuantLib::Handle.22" = type { %"class.boost::shared_ptr.23" }
%"class.boost::shared_ptr.23" = type { ptr, %"class.boost::detail::shared_count" }
%"class.boost::shared_ptr.56" = type { ptr, %"class.boost::detail::shared_count" }
%"class.QuantLib::FixedRateBondHelper" = type { %"class.QuantLib::BondHelper.base", %"class.boost::shared_ptr.56" }
%"class.QuantLib::BondHelper.base" = type <{ %"class.QuantLib::BootstrapHelper", %"class.boost::shared_ptr.21", %"class.QuantLib::RelinkableHandle", i32 }>

; Function Attrs: mustprogress nounwind uwtable
define linkonce_odr void @_ZN5boost6detail12shared_countC2Ev(ptr noundef nonnull align 8 dereferenceable(8) %this) unnamed_addr #1 comdat align 2 {
entry:
  %this.addr = alloca ptr, align 8
  store ptr %this, ptr %this.addr, align 8, !tbaa !3
  %this1 = load ptr, ptr %this.addr, align 8
  %pi_ = getelementptr inbounds nuw %"class.boost::detail::shared_count", ptr %this1, i32 0, i32 0
  store ptr null, ptr %pi_, align 8, !tbaa !96
  ret void
}

; Function Attrs: inlinehint mustprogress nounwind uwtable
define linkonce_odr void @_ZN5boost6detail21sp_assert_convertibleIN8QuantLib13FixedRateBondENS2_4BondEEEvv() #5 comdat {
entry:
  ret void
}

; Function Attrs: mustprogress nounwind uwtable
define linkonce_odr void @_ZN5boost6detail12shared_countC2EOS1_(ptr noundef nonnull align 8 dereferenceable(8) %this, ptr noundef nonnull align 8 dereferenceable(8) %r) unnamed_addr #1 comdat align 2 {
entry:
  %this.addr = alloca ptr, align 8
  %r.addr = alloca ptr, align 8
  store ptr %this, ptr %this.addr, align 8, !tbaa !3
  store ptr %r, ptr %r.addr, align 8, !tbaa !3
  %this1 = load ptr, ptr %this.addr, align 8
  %pi_ = getelementptr inbounds nuw %"class.boost::detail::shared_count", ptr %this1, i32 0, i32 0
  %0 = load ptr, ptr %r.addr, align 8, !tbaa !3
  %pi_2 = getelementptr inbounds nuw %"class.boost::detail::shared_count", ptr %0, i32 0, i32 0
  %1 = load ptr, ptr %pi_2, align 8, !tbaa !96
  store ptr %1, ptr %pi_, align 8, !tbaa !96
  %2 = load ptr, ptr %r.addr, align 8, !tbaa !3
  %pi_3 = getelementptr inbounds nuw %"class.boost::detail::shared_count", ptr %2, i32 0, i32 0
  store ptr null, ptr %pi_3, align 8, !tbaa !96
  ret void
}

; Function Attrs: mustprogress nounwind uwtable
define linkonce_odr void @_ZN5boost10shared_ptrIN8QuantLib13FixedRateBondEEC2Ev(ptr noundef nonnull align 8 dereferenceable(16) %this) unnamed_addr #1 comdat align 2 {
entry:
  %this.addr = alloca ptr, align 8
  store ptr %this, ptr %this.addr, align 8, !tbaa !3
  %this1 = load ptr, ptr %this.addr, align 8
  %px = getelementptr inbounds nuw %"class.boost::shared_ptr.56", ptr %this1, i32 0, i32 0
  store ptr null, ptr %px, align 8, !tbaa !67
  %pn = getelementptr inbounds nuw %"class.boost::shared_ptr.56", ptr %this1, i32 0, i32 1
  call void @_ZN5boost6detail12shared_countC2Ev(ptr noundef nonnull align 8 dereferenceable(8) %pn) #13
  ret void
}

; Function Attrs: mustprogress nounwind uwtable
define linkonce_odr void @_ZN5boost10shared_ptrIN8QuantLib4BondEEC2INS1_13FixedRateBondEEEONS0_IT_EENS_6detail24sp_enable_if_convertibleIS6_S2_E4typeE(ptr noundef nonnull align 8 dereferenceable(16) %this, ptr noundef nonnull align 8 dereferenceable(16) %r) unnamed_addr #1 comdat align 2 {
entry:
  %this.addr = alloca ptr, align 8
  %r.addr = alloca ptr, align 8
  store ptr %this, ptr %this.addr, align 8, !tbaa !3
  store ptr %r, ptr %r.addr, align 8, !tbaa !3
  %this1 = load ptr, ptr %this.addr, align 8
  %px = getelementptr inbounds nuw %"class.boost::shared_ptr.21", ptr %this1, i32 0, i32 0
  %0 = load ptr, ptr %r.addr, align 8, !tbaa !3
  %px2 = getelementptr inbounds nuw %"class.boost::shared_ptr.56", ptr %0, i32 0, i32 0
  %1 = load ptr, ptr %px2, align 8, !tbaa !67
  store ptr %1, ptr %px, align 8, !tbaa !45
  %pn = getelementptr inbounds nuw %"class.boost::shared_ptr.21", ptr %this1, i32 0, i32 1
  %2 = load ptr, ptr %r.addr, align 8, !tbaa !3
  %pn3 = getelementptr inbounds nuw %"class.boost::shared_ptr.56", ptr %2, i32 0, i32 1
  call void @_ZN5boost6detail12shared_countC2EOS1_(ptr noundef nonnull align 8 dereferenceable(8) %pn, ptr noundef nonnull align 8 dereferenceable(8) %pn3) #13
  call void @_ZN5boost6detail21sp_assert_convertibleIN8QuantLib13FixedRateBondENS2_4BondEEEvv() #13
  %3 = load ptr, ptr %r.addr, align 8, !tbaa !3
  %px4 = getelementptr inbounds nuw %"class.boost::shared_ptr.56", ptr %3, i32 0, i32 0
  store ptr null, ptr %px4, align 8, !tbaa !67
  ret void
}

; Function Attrs: mustprogress uwtable
define void @_ZN8QuantLib19FixedRateBondHelperC2ERKNS_6HandleINS_5QuoteEEEjdNS_8ScheduleERKSt6vectorIdSaIdEERKNS_10DayCounterENS_21BusinessDayConventionEdRKNS_4DateERKNS_8CalendarERKNS_6PeriodESL_SF_bNS_4Bond5Price4TypeE(ptr noundef nonnull align 8 dereferenceable(232) %this, ptr noundef nonnull align 8 dereferenceable(16) %price, i32 noundef %settlementDays, double noundef %faceAmount, ptr noundef %schedule, ptr noundef nonnull align 8 dereferenceable(24) %coupons, ptr noundef nonnull align 8 dereferenceable(16) %dayCounter, i32 noundef %paymentConvention, double noundef %redemption, ptr noundef nonnull align 8 dereferenceable(8) %issueDate, ptr noundef nonnull align 8 dereferenceable(16) %paymentCalendar, ptr noundef nonnull align 4 dereferenceable(8) %exCouponPeriod, ptr noundef nonnull align 8 dereferenceable(16) %exCouponCalendar, i32 noundef %exCouponConvention, i1 noundef zeroext %exCouponEndOfMonth, i32 noundef %priceType) unnamed_addr #2 align 2 personality ptr @__gxx_personality_v0 {
entry:
  %this.addr = alloca ptr, align 8
  %price.addr = alloca ptr, align 8
  %settlementDays.addr = alloca i32, align 4
  %faceAmount.addr = alloca double, align 8
  %schedule.indirect_addr = alloca ptr, align 8
  %coupons.addr = alloca ptr, align 8
  %dayCounter.addr = alloca ptr, align 8
  %paymentConvention.addr = alloca i32, align 4
  %redemption.addr = alloca double, align 8
  %issueDate.addr = alloca ptr, align 8
  %paymentCalendar.addr = alloca ptr, align 8
  %exCouponPeriod.addr = alloca ptr, align 8
  %exCouponCalendar.addr = alloca ptr, align 8
  %exCouponConvention.addr = alloca i32, align 4
  %exCouponEndOfMonth.addr = alloca i8, align 1
  %priceType.addr = alloca i32, align 4
  %ref.tmp = alloca %"class.boost::shared_ptr.21", align 8
  %ref.tmp2 = alloca %"class.boost::shared_ptr.56", align 8
  %exn.slot = alloca ptr, align 8
  %ehselector.slot = alloca i32, align 4
  store ptr %this, ptr %this.addr, align 8, !tbaa !3
  store ptr %price, ptr %price.addr, align 8, !tbaa !3
  store i32 %settlementDays, ptr %settlementDays.addr, align 4, !tbaa !61
  store double %faceAmount, ptr %faceAmount.addr, align 8, !tbaa !63
  store ptr %schedule, ptr %schedule.indirect_addr, align 8, !tbaa !3
  store ptr %coupons, ptr %coupons.addr, align 8, !tbaa !3
  store ptr %dayCounter, ptr %dayCounter.addr, align 8, !tbaa !3
  store i32 %paymentConvention, ptr %paymentConvention.addr, align 4, !tbaa !65
  store double %redemption, ptr %redemption.addr, align 8, !tbaa !63
  store ptr %issueDate, ptr %issueDate.addr, align 8, !tbaa !3
  store ptr %paymentCalendar, ptr %paymentCalendar.addr, align 8, !tbaa !3
  store ptr %exCouponPeriod, ptr %exCouponPeriod.addr, align 8, !tbaa !3
  store ptr %exCouponCalendar, ptr %exCouponCalendar.addr, align 8, !tbaa !3
  store i32 %exCouponConvention, ptr %exCouponConvention.addr, align 4, !tbaa !65
  %storedv = zext i1 %exCouponEndOfMonth to i8
  store i8 %storedv, ptr %exCouponEndOfMonth.addr, align 1, !tbaa !52
  store i32 %priceType, ptr %priceType.addr, align 4, !tbaa !14
  %this1 = load ptr, ptr %this.addr, align 8
  %0 = load ptr, ptr %price.addr, align 8, !tbaa !3
  call void @llvm.lifetime.start.p0(i64 16, ptr %ref.tmp) #13
  call void @llvm.lifetime.start.p0(i64 16, ptr %ref.tmp2) #13
  %1 = load ptr, ptr %coupons.addr, align 8, !tbaa !3
  %2 = load ptr, ptr %dayCounter.addr, align 8, !tbaa !3
  %3 = load ptr, ptr %issueDate.addr, align 8, !tbaa !3
  %4 = load ptr, ptr %paymentCalendar.addr, align 8, !tbaa !3
  %5 = load ptr, ptr %exCouponPeriod.addr, align 8, !tbaa !3
  %6 = load ptr, ptr %exCouponCalendar.addr, align 8, !tbaa !3
  call void @_ZN5boost11make_sharedIN8QuantLib13FixedRateBondEJRjRdNS1_8ScheduleERKSt6vectorIdSaIdEERKNS1_10DayCounterERNS1_21BusinessDayConventionES4_RKNS1_4DateERKNS1_8CalendarERKNS1_6PeriodESL_RKSE_RbEEENS_6detail15sp_if_not_arrayIT_E4typeEDpOT0_(ptr dead_on_unwind writable sret(%"class.boost::shared_ptr.56") align 8 %ref.tmp2, ptr noundef nonnull align 4 dereferenceable(4) %settlementDays.addr, ptr noundef nonnull align 8 dereferenceable(8) %faceAmount.addr, ptr noundef nonnull align 8 dereferenceable(136) %schedule, ptr noundef nonnull align 8 dereferenceable(24) %1, ptr noundef nonnull align 8 dereferenceable(16) %2, ptr noundef nonnull align 4 dereferenceable(4) %paymentConvention.addr, ptr noundef nonnull align 8 dereferenceable(8) %redemption.addr, ptr noundef nonnull align 8 dereferenceable(8) %3, ptr noundef nonnull align 8 dereferenceable(16) %4, ptr noundef nonnull align 4 dereferenceable(8) %5, ptr noundef nonnull align 8 dereferenceable(16) %6, ptr noundef nonnull align 4 dereferenceable(4) %exCouponConvention.addr, ptr noundef nonnull align 1 dereferenceable(1) %exCouponEndOfMonth.addr)
  call void @_ZN5boost10shared_ptrIN8QuantLib4BondEEC2INS1_13FixedRateBondEEEONS0_IT_EENS_6detail24sp_enable_if_convertibleIS6_S2_E4typeE(ptr noundef nonnull align 8 dereferenceable(16) %ref.tmp, ptr noundef nonnull align 8 dereferenceable(16) %ref.tmp2) #13
  %7 = load i32, ptr %priceType.addr, align 4, !tbaa !14
  invoke void @_ZN8QuantLib10BondHelperC2ERKNS_6HandleINS_5QuoteEEERKN5boost10shared_ptrINS_4BondEEENS8_5Price4TypeE(ptr noundef nonnull align 8 dereferenceable(212) %this1, ptr noundef nonnull align 8 dereferenceable(16) %0, ptr noundef nonnull align 8 dereferenceable(16) %ref.tmp, i32 noundef %7)
          to label %invoke.cont unwind label %lpad

invoke.cont:                                      ; preds = %entry
  call void @_ZN5boost10shared_ptrIN8QuantLib4BondEED2Ev(ptr noundef nonnull align 8 dereferenceable(16) %ref.tmp) #13
  call void @_ZN5boost10shared_ptrIN8QuantLib13FixedRateBondEED2Ev(ptr noundef nonnull align 8 dereferenceable(16) %ref.tmp2) #13
  call void @llvm.lifetime.end.p0(i64 16, ptr %ref.tmp2) #13
  call void @llvm.lifetime.end.p0(i64 16, ptr %ref.tmp) #13
  store ptr getelementptr inbounds inrange(-16, 96) ({ [14 x ptr], [4 x ptr] }, ptr @_ZTVN8QuantLib19FixedRateBondHelperE, i32 0, i32 0, i32 2), ptr %this1, align 8, !tbaa !12
  %add.ptr = getelementptr inbounds i8, ptr %this1, i64 56
  store ptr getelementptr inbounds inrange(-16, 16) ({ [14 x ptr], [4 x ptr] }, ptr @_ZTVN8QuantLib19FixedRateBondHelperE, i32 0, i32 1, i32 2), ptr %add.ptr, align 8, !tbaa !12
  %fixedRateBond_ = getelementptr inbounds nuw %"class.QuantLib::FixedRateBondHelper", ptr %this1, i32 0, i32 1
  call void @_ZN5boost10shared_ptrIN8QuantLib13FixedRateBondEEC2Ev(ptr noundef nonnull align 8 dereferenceable(16) %fixedRateBond_) #13
  ret void

lpad:                                             ; preds = %entry
  %8 = landingpad { ptr, i32 }
          cleanup
  %9 = extractvalue { ptr, i32 } %8, 0
  store ptr %9, ptr %exn.slot, align 8
  %10 = extractvalue { ptr, i32 } %8, 1
  store i32 %10, ptr %ehselector.slot, align 4
  call void @_ZN5boost10shared_ptrIN8QuantLib4BondEED2Ev(ptr noundef nonnull align 8 dereferenceable(16) %ref.tmp) #13
  call void @_ZN5boost10shared_ptrIN8QuantLib13FixedRateBondEED2Ev(ptr noundef nonnull align 8 dereferenceable(16) %ref.tmp2) #13
  call void @llvm.lifetime.end.p0(i64 16, ptr %ref.tmp2) #13
  call void @llvm.lifetime.end.p0(i64 16, ptr %ref.tmp) #13
  br label %eh.resume

eh.resume:                                        ; preds = %lpad
  %exn = load ptr, ptr %exn.slot, align 8
  %sel = load i32, ptr %ehselector.slot, align 4
  %lpad.val = insertvalue { ptr, i32 } poison, ptr %exn, 0
  %lpad.val3 = insertvalue { ptr, i32 } %lpad.val, i32 %sel, 1
  resume { ptr, i32 } %lpad.val3
}