; Function Attrs: mustprogress uwtable
define void @_ZN8QuantLib19FixedRateBondHelperC2ERKNS_6HandleINS_5QuoteEEEjdNS_8ScheduleERKSt6vectorIdSaIdEERKNS_10DayCounterENS_21BusinessDayConventionEdRKNS_4DateERKNS_8CalendarERKNS_6PeriodESL_SF_bNS_4Bond5Price4TypeE(ptr noundef nonnull align 8 dereferenceable(232) %this, ptr nocapture noundef nonnull readonly align 8 dereferenceable(16) %price, i32 noundef %settlementDays, double noundef %faceAmount, ptr noundef nonnull %schedule, ptr noundef nonnull align 8 dereferenceable(24) %coupons, ptr noundef nonnull align 8 dereferenceable(16) %dayCounter, i32 noundef %paymentConvention, double noundef %redemption, ptr noundef nonnull align 8 dereferenceable(8) %issueDate, ptr noundef nonnull align 8 dereferenceable(16) %paymentCalendar, ptr noundef nonnull align 4 dereferenceable(8) %exCouponPeriod, ptr noundef nonnull align 8 dereferenceable(16) %exCouponCalendar, i32 noundef %exCouponConvention, i1 noundef zeroext %exCouponEndOfMonth, i32 noundef %priceType) unnamed_addr #7 align 2 personality ptr @__gxx_personality_v0 {
entry:
  %settlementDays.addr = alloca i32, align 4
  %faceAmount.addr = alloca double, align 8
  %paymentConvention.addr = alloca i32, align 4
  %redemption.addr = alloca double, align 8
  %exCouponConvention.addr = alloca i32, align 4
  %exCouponEndOfMonth.addr = alloca i8, align 1
  %ref.tmp = alloca %"class.boost::shared_ptr.21", align 8
  %ref.tmp2 = alloca %"class.boost::shared_ptr.56", align 8
  store i32 %settlementDays, ptr %settlementDays.addr, align 4, !tbaa !98
  store double %faceAmount, ptr %faceAmount.addr, align 8, !tbaa !99
  store i32 %paymentConvention, ptr %paymentConvention.addr, align 4, !tbaa !101
  store double %redemption, ptr %redemption.addr, align 8, !tbaa !99
  store i32 %exCouponConvention, ptr %exCouponConvention.addr, align 4, !tbaa !101
  %storedv = zext i1 %exCouponEndOfMonth to i8
  store i8 %storedv, ptr %exCouponEndOfMonth.addr, align 1, !tbaa !103
  call void @llvm.lifetime.start.p0(i64 16, ptr nonnull %ref.tmp) #25
  call void @llvm.lifetime.start.p0(i64 16, ptr nonnull %ref.tmp2) #25
  call void @_ZN5boost11make_sharedIN8QuantLib13FixedRateBondEJRjRdNS1_8ScheduleERKSt6vectorIdSaIdEERKNS1_10DayCounterERNS1_21BusinessDayConventionES4_RKNS1_4DateERKNS1_8CalendarERKNS1_6PeriodESL_RKSE_RbEEENS_6detail15sp_if_not_arrayIT_E4typeEDpOT0_(ptr dead_on_unwind nonnull writable sret(%"class.boost::shared_ptr.56") align 8 %ref.tmp2, ptr noundef nonnull align 4 dereferenceable(4) %settlementDays.addr, ptr noundef nonnull align 8 dereferenceable(8) %faceAmount.addr, ptr noundef nonnull align 8 dereferenceable(136) %schedule, ptr noundef nonnull align 8 dereferenceable(24) %coupons, ptr noundef nonnull align 8 dereferenceable(16) %dayCounter, ptr noundef nonnull align 4 dereferenceable(4) %paymentConvention.addr, ptr noundef nonnull align 8 dereferenceable(8) %redemption.addr, ptr noundef nonnull align 8 dereferenceable(8) %issueDate, ptr noundef nonnull align 8 dereferenceable(16) %paymentCalendar, ptr noundef nonnull align 4 dereferenceable(8) %exCouponPeriod, ptr noundef nonnull align 8 dereferenceable(16) %exCouponCalendar, ptr noundef nonnull align 4 dereferenceable(4) %exCouponConvention.addr, ptr noundef nonnull align 1 dereferenceable(1) %exCouponEndOfMonth.addr)
  %0 = load ptr, ptr %ref.tmp2, align 8, !tbaa !104
  store ptr %0, ptr %ref.tmp, align 8, !tbaa !41
  %pn.i = getelementptr inbounds nuw i8, ptr %ref.tmp, i64 8
  %pn3.i = getelementptr inbounds nuw i8, ptr %ref.tmp2, i64 8
  %1 = load ptr, ptr %pn3.i, align 8, !tbaa !37
  store ptr %1, ptr %pn.i, align 8, !tbaa !37
  call void @llvm.memset.p0.i64(ptr noundef nonnull align 8 dereferenceable(16) %ref.tmp2, i8 0, i64 16, i1 false)
  invoke void @_ZN8QuantLib10BondHelperC2ERKNS_6HandleINS_5QuoteEEERKN5boost10shared_ptrINS_4BondEEENS8_5Price4TypeE(ptr noundef nonnull align 8 dereferenceable(212) %this, ptr noundef nonnull align 8 dereferenceable(16) %price, ptr noundef nonnull align 8 dereferenceable(16) %ref.tmp, i32 noundef %priceType)
          to label %invoke.cont unwind label %lpad

invoke.cont:                                      ; preds = %entry
  %cmp.not.i.i = icmp eq ptr %1, null
  br i1 %cmp.not.i.i, label %_ZN5boost10shared_ptrIN8QuantLib4BondEED2Ev.exit, label %if.then.i.i

if.then.i.i:                                      ; preds = %invoke.cont
  %use_count_.i.i.i = getelementptr inbounds nuw i8, ptr %1, i64 8
  %2 = atomicrmw sub ptr %use_count_.i.i.i, i32 1 acq_rel, align 4
  %cmp.i.i.i = icmp eq i32 %2, 1
  br i1 %cmp.i.i.i, label %if.then.i.i.i, label %_ZN5boost10shared_ptrIN8QuantLib4BondEED2Ev.exit

if.then.i.i.i:                                    ; preds = %if.then.i.i
  %vtable.i.i.i = load ptr, ptr %1, align 8, !tbaa !35
  %vfn.i.i.i = getelementptr inbounds i8, ptr %vtable.i.i.i, i64 16
  %3 = load ptr, ptr %vfn.i.i.i, align 8
  invoke void %3(ptr noundef nonnull align 8 dereferenceable(16) %1)
          to label %.noexc.i.i unwind label %terminate.lpad.i.i

.noexc.i.i:                                       ; preds = %if.then.i.i.i
  %weak_count_.i.i.i.i = getelementptr inbounds nuw i8, ptr %1, i64 12
  %4 = atomicrmw sub ptr %weak_count_.i.i.i.i, i32 1 acq_rel, align 4
  %cmp.i.i.i.i = icmp eq i32 %4, 1
  br i1 %cmp.i.i.i.i, label %if.then.i.i.i.i, label %_ZN5boost10shared_ptrIN8QuantLib4BondEED2Ev.exit

if.then.i.i.i.i:                                  ; preds = %.noexc.i.i
  %vtable.i.i.i.i = load ptr, ptr %1, align 8, !tbaa !35
  %vfn.i.i.i.i = getelementptr inbounds i8, ptr %vtable.i.i.i.i, i64 24
  %5 = load ptr, ptr %vfn.i.i.i.i, align 8
  invoke void %5(ptr noundef nonnull align 8 dereferenceable(16) %1)
          to label %_ZN5boost10shared_ptrIN8QuantLib4BondEED2Ev.exit unwind label %terminate.lpad.i.i

terminate.lpad.i.i:                               ; preds = %if.then.i.i.i.i, %if.then.i.i.i
  %6 = landingpad { ptr, i32 }
          catch ptr null
  %7 = extractvalue { ptr, i32 } %6, 0
  call void @__clang_call_terminate(ptr %7) #26
  unreachable

_ZN5boost10shared_ptrIN8QuantLib4BondEED2Ev.exit: ; preds = %invoke.cont, %if.then.i.i, %.noexc.i.i, %if.then.i.i.i.i
  %8 = load ptr, ptr %pn3.i, align 8, !tbaa !37
  %cmp.not.i.i3 = icmp eq ptr %8, null
  br i1 %cmp.not.i.i3, label %_ZN5boost10shared_ptrIN8QuantLib13FixedRateBondEED2Ev.exit, label %if.then.i.i4

if.then.i.i4:                                     ; preds = %_ZN5boost10shared_ptrIN8QuantLib4BondEED2Ev.exit
  %use_count_.i.i.i5 = getelementptr inbounds nuw i8, ptr %8, i64 8
  %9 = atomicrmw sub ptr %use_count_.i.i.i5, i32 1 acq_rel, align 4
  %cmp.i.i.i6 = icmp eq i32 %9, 1
  br i1 %cmp.i.i.i6, label %if.then.i.i.i7, label %_ZN5boost10shared_ptrIN8QuantLib13FixedRateBondEED2Ev.exit

if.then.i.i.i7:                                   ; preds = %if.then.i.i4
  %vtable.i.i.i8 = load ptr, ptr %8, align 8, !tbaa !35
  %vfn.i.i.i9 = getelementptr inbounds i8, ptr %vtable.i.i.i8, i64 16
  %10 = load ptr, ptr %vfn.i.i.i9, align 8
  invoke void %10(ptr noundef nonnull align 8 dereferenceable(16) %8)
          to label %.noexc.i.i11 unwind label %terminate.lpad.i.i10

.noexc.i.i11:                                     ; preds = %if.then.i.i.i7
  %weak_count_.i.i.i.i12 = getelementptr inbounds nuw i8, ptr %8, i64 12
  %11 = atomicrmw sub ptr %weak_count_.i.i.i.i12, i32 1 acq_rel, align 4
  %cmp.i.i.i.i13 = icmp eq i32 %11, 1
  br i1 %cmp.i.i.i.i13, label %if.then.i.i.i.i14, label %_ZN5boost10shared_ptrIN8QuantLib13FixedRateBondEED2Ev.exit

if.then.i.i.i.i14:                                ; preds = %.noexc.i.i11
  %vtable.i.i.i.i15 = load ptr, ptr %8, align 8, !tbaa !35
  %vfn.i.i.i.i16 = getelementptr inbounds i8, ptr %vtable.i.i.i.i15, i64 24
  %12 = load ptr, ptr %vfn.i.i.i.i16, align 8
  invoke void %12(ptr noundef nonnull align 8 dereferenceable(16) %8)
          to label %_ZN5boost10shared_ptrIN8QuantLib13FixedRateBondEED2Ev.exit unwind label %terminate.lpad.i.i10

terminate.lpad.i.i10:                             ; preds = %if.then.i.i.i.i14, %if.then.i.i.i7
  %13 = landingpad { ptr, i32 }
          catch ptr null
  %14 = extractvalue { ptr, i32 } %13, 0
  call void @__clang_call_terminate(ptr %14) #26
  unreachable

_ZN5boost10shared_ptrIN8QuantLib13FixedRateBondEED2Ev.exit: ; preds = %_ZN5boost10shared_ptrIN8QuantLib4BondEED2Ev.exit, %if.then.i.i4, %.noexc.i.i11, %if.then.i.i.i.i14
  call void @llvm.lifetime.end.p0(i64 16, ptr nonnull %ref.tmp2) #25
  call void @llvm.lifetime.end.p0(i64 16, ptr nonnull %ref.tmp) #25
  store ptr getelementptr inbounds inrange(-16, 96) (i8, ptr @_ZTVN8QuantLib19FixedRateBondHelperE, i64 16), ptr %this, align 8, !tbaa !35
  %add.ptr = getelementptr inbounds i8, ptr %this, i64 56
  store ptr getelementptr inbounds inrange(-16, 16) (i8, ptr @_ZTVN8QuantLib19FixedRateBondHelperE, i64 128), ptr %add.ptr, align 8, !tbaa !35
  %fixedRateBond_ = getelementptr inbounds nuw i8, ptr %this, i64 216
  call void @llvm.memset.p0.i64(ptr noundef nonnull align 8 dereferenceable(16) %fixedRateBond_, i8 0, i64 16, i1 false)
  ret void

lpad:                                             ; preds = %entry
  %15 = landingpad { ptr, i32 }
          cleanup
  call void @_ZN5boost10shared_ptrIN8QuantLib4BondEED2Ev(ptr noundef nonnull align 8 dereferenceable(16) %ref.tmp) #25
  call void @_ZN5boost10shared_ptrIN8QuantLib13FixedRateBondEED2Ev(ptr noundef nonnull align 8 dereferenceable(16) %ref.tmp2) #25
  call void @llvm.lifetime.end.p0(i64 16, ptr nonnull %ref.tmp2) #25
  call void @llvm.lifetime.end.p0(i64 16, ptr nonnull %ref.tmp) #25
  resume { ptr, i32 } %15
}